target datalayout = "e-m:e-p270:32:32-p271:32:32-p272:64:64-i64:64-i128:128-f80:128-n8:16:32:64-S128"
target triple = "x86_64-pc-linux-gnu"

@hf_mip6_bra_interval = internal global i32 0, align 4
@ett_mip6_opt_bra = internal global i32 0, align 4
@proto_mip6_option_bra = internal global i32 0, align 4
@.str.735 = private unnamed_addr constant [17 x i8] c"%d (%ld seconds)\00", align 1

; Function Attrs: null_pointer_is_valid sspstrong uwtable
define internal i32 @dissect_mip6_opt_bra(ptr noundef %0, ptr noundef %1, ptr noundef %2, ptr noundef %3) #0 {
  %5 = alloca ptr, align 8
  %6 = alloca ptr, align 8
  %7 = alloca ptr, align 8
  %8 = alloca ptr, align 8
  %9 = alloca ptr, align 8
  %10 = alloca ptr, align 8
  %11 = alloca i32, align 4
  %12 = alloca i32, align 4
  %13 = alloca i32, align 4
  store ptr %0, ptr %5, align 8
  store ptr %1, ptr %6, align 8
  store ptr %2, ptr %7, align 8
  store ptr %3, ptr %8, align 8
  call void @llvm.lifetime.start.p0(i64 8, ptr %9) #6
  call void @llvm.lifetime.start.p0(i64 8, ptr %10) #6
  call void @llvm.lifetime.start.p0(i64 4, ptr %11) #6
  %14 = load ptr, ptr %5, align 8
  %15 = call i32 @tvb_reported_length(ptr noundef %14)
  %16 = sub i32 %15, 2
  store i32 %16, ptr %11, align 4
  call void @llvm.lifetime.start.p0(i64 4, ptr %12) #6
  store i32 2, ptr %12, align 4
  call void @llvm.lifetime.start.p0(i64 4, ptr %13) #6
  %17 = load ptr, ptr %7, align 8
  %18 = load ptr, ptr %6, align 8
  %19 = load ptr, ptr %5, align 8
  %20 = load i32, ptr @proto_mip6_option_bra, align 4
  %21 = load i32, ptr @ett_mip6_opt_bra, align 4
  %22 = load i32, ptr %11, align 4
  %23 = call ptr @mip6_fixed_option_header(ptr noundef %17, ptr noundef %18, ptr noundef %19, i32 noundef %20, i32 noundef %21, ptr noundef %10, i32 noundef %22, i32 noundef 2)
  store ptr %23, ptr %9, align 8
  %24 = load ptr, ptr %5, align 8
  %25 = load i32, ptr %12, align 4
  %26 = call zeroext i16 @tvb_get_ntohs(ptr noundef %24, i32 noundef %25)
  %27 = zext i16 %26 to i32
  store i32 %27, ptr %13, align 4
  %28 = load ptr, ptr %9, align 8
  %29 = load i32, ptr @hf_mip6_bra_interval, align 4
  %30 = load ptr, ptr %5, align 8
  %31 = load i32, ptr %12, align 4
  %32 = load i32, ptr %13, align 4
  %33 = load i32, ptr %13, align 4
  %34 = load i32, ptr %13, align 4
  %35 = sext i32 %34 to i64
  %36 = mul i64 %35, 4
  %37 = call ptr (ptr, i32, ptr, i32, i32, i32, ptr, ...) @proto_tree_add_uint_format_value(ptr noundef %28, i32 noundef %29, ptr noundef %30, i32 noundef %31, i32 noundef 2, i32 noundef %32, ptr noundef @.str.735, i32 noundef %33, i64 noundef %36)
  %38 = load ptr, ptr %5, align 8
  %39 = call i32 @tvb_captured_length(ptr noundef %38)
  call void @llvm.lifetime.end.p0(i64 4, ptr %13) #6
  call void @llvm.lifetime.end.p0(i64 4, ptr %12) #6
  call void @llvm.lifetime.end.p0(i64 4, ptr %11) #6
  call void @llvm.lifetime.end.p0(i64 8, ptr %10) #6
  call void @llvm.lifetime.end.p0(i64 8, ptr %9) #6
  ret i32 %39
}